target datalayout = "e-m:e-p270:32:32-p271:32:32-p272:64:64-i64:64-i128:128-f80:128-n8:16:32:64-S128"
target triple = "x86_64-pc-linux-gnu"

%struct.Map_TimeStruct_t_ = type { float, float, float }
%struct.Map_ManStruct_t_ = type { ptr, i32, ptr, i32, ptr, i32, i32, ptr, ptr, ptr, ptr, ptr, ptr, ptr, ptr, i32, i32, i32, i32, float, float, float, float, i32, i32, float, i32, i32, i32, i32, ptr, [6 x [2 x i32]], [10 x [32 x i32]], [32 x i32], [32 x i32], ptr, ptr, ptr, ptr, ptr, ptr, i32, i32, i32, i32, i32, i32, i64, i64, i64, i64, i64, i64, i64, i64, i64, i64, i64 }
%struct.Map_SuperStruct_t_ = type { i32, i32, [4 x i8], i32, [6 x ptr], ptr, [2 x i32], [6 x %struct.Map_TimeStruct_t_], [6 x %struct.Map_TimeStruct_t_], %struct.Map_TimeStruct_t_, float, ptr, ptr }
%struct.Map_SuperLibStruct_t_ = type { ptr, ptr, i32, i32, i32, i32, i32, ptr, ptr, ptr, [6 x [2 x i32]], [2 x i32], ptr, %struct.Map_TimeStruct_t_, float, float, ptr, ptr, ptr, ptr }

; Function Attrs: nounwind uwtable
define ptr @Map_CreateTableGate2Super(ptr noundef %0) #0 {
  %2 = alloca ptr, align 8
  %3 = alloca ptr, align 8
  %4 = alloca ptr, align 8
  %5 = alloca i32, align 4
  %6 = alloca i32, align 4
  %7 = alloca i32, align 4
  store ptr %0, ptr %2, align 8, !tbaa !20
  call void @llvm.lifetime.start.p0(i64 8, ptr %3) #4
  call void @llvm.lifetime.start.p0(i64 8, ptr %4) #4
  call void @llvm.lifetime.start.p0(i64 4, ptr %5) #4
  call void @llvm.lifetime.start.p0(i64 4, ptr %6) #4
  call void @llvm.lifetime.start.p0(i64 4, ptr %7) #4
  %8 = call ptr @st__init_table(ptr noundef @strcmp, ptr noundef @st__strhash)
  store ptr %8, ptr %4, align 8, !tbaa !75
  store i32 0, ptr %5, align 4, !tbaa !10
  br label %9

9:                                                ; preds = %77, %1
  %10 = load i32, ptr %5, align 4, !tbaa !10
  %11 = load ptr, ptr %2, align 8, !tbaa !20
  %12 = getelementptr inbounds nuw %struct.Map_ManStruct_t_, ptr %11, i32 0, i32 30
  %13 = load ptr, ptr %12, align 8, !tbaa !77
  %14 = getelementptr inbounds nuw %struct.Map_SuperLibStruct_t_, ptr %13, i32 0, i32 3
  %15 = load i32, ptr %14, align 4, !tbaa !78
  %16 = icmp slt i32 %10, %15
  br i1 %16, label %17, label %80

17:                                               ; preds = %9
  %18 = load ptr, ptr %2, align 8, !tbaa !20
  %19 = getelementptr inbounds nuw %struct.Map_ManStruct_t_, ptr %18, i32 0, i32 30
  %20 = load ptr, ptr %19, align 8, !tbaa !77
  %21 = getelementptr inbounds nuw %struct.Map_SuperLibStruct_t_, ptr %20, i32 0, i32 7
  %22 = load ptr, ptr %21, align 8, !tbaa !85
  %23 = load i32, ptr %5, align 4, !tbaa !10
  %24 = sext i32 %23 to i64
  %25 = getelementptr inbounds ptr, ptr %22, i64 %24
  %26 = load ptr, ptr %25, align 8, !tbaa !86
  store ptr %26, ptr %3, align 8, !tbaa !86
  %27 = load ptr, ptr %3, align 8, !tbaa !86
  %28 = getelementptr inbounds nuw %struct.Map_SuperStruct_t_, ptr %27, i32 0, i32 1
  %29 = load i32, ptr %28, align 4
  %30 = lshr i32 %29, 5
  %31 = and i32 %30, 7
  %32 = icmp eq i32 %31, 1
  br i1 %32, label %33, label %76

33:                                               ; preds = %17
  %34 = load ptr, ptr %3, align 8, !tbaa !86
  %35 = getelementptr inbounds nuw %struct.Map_SuperStruct_t_, ptr %34, i32 0, i32 5
  %36 = load ptr, ptr %35, align 8, !tbaa !87
  %37 = call i32 @Mio_GateReadPinNum(ptr noundef %36)
  store i32 %37, ptr %6, align 4, !tbaa !10
  store i32 0, ptr %7, align 4, !tbaa !10
  br label %38

38:                                               ; preds = %58, %33
  %39 = load i32, ptr %7, align 4, !tbaa !10
  %40 = load i32, ptr %6, align 4, !tbaa !10
  %41 = icmp slt i32 %39, %40
  br i1 %41, label %42, label %61

42:                                               ; preds = %38
  %43 = load ptr, ptr %3, align 8, !tbaa !86
  %44 = getelementptr inbounds nuw %struct.Map_SuperStruct_t_, ptr %43, i32 0, i32 4
  %45 = load i32, ptr %7, align 4, !tbaa !10
  %46 = sext i32 %45 to i64
  %47 = getelementptr inbounds [6 x ptr], ptr %44, i64 0, i64 %46
  %48 = load ptr, ptr %47, align 8, !tbaa !86
  %49 = getelementptr inbounds nuw %struct.Map_SuperStruct_t_, ptr %48, i32 0, i32 0
  %50 = load i32, ptr %49, align 8, !tbaa !89
  %51 = load i32, ptr %6, align 4, !tbaa !10
  %52 = sub nsw i32 %51, 1
  %53 = load i32, ptr %7, align 4, !tbaa !10
  %54 = sub nsw i32 %52, %53
  %55 = icmp ne i32 %50, %54
  br i1 %55, label %56, label %57

56:                                               ; preds = %42
  br label %61

57:                                               ; preds = %42
  br label %58

58:                                               ; preds = %57
  %59 = load i32, ptr %7, align 4, !tbaa !10
  %60 = add nsw i32 %59, 1
  store i32 %60, ptr %7, align 4, !tbaa !10
  br label %38, !llvm.loop !90

61:                                               ; preds = %56, %38
  %62 = load i32, ptr %7, align 4, !tbaa !10
  %63 = load i32, ptr %6, align 4, !tbaa !10
  %64 = icmp ne i32 %62, %63
  br i1 %64, label %65, label %66

65:                                               ; preds = %61
  br label %77

66:                                               ; preds = %61
  %67 = load ptr, ptr %4, align 8, !tbaa !75
  %68 = load ptr, ptr %3, align 8, !tbaa !86
  %69 = getelementptr inbounds nuw %struct.Map_SuperStruct_t_, ptr %68, i32 0, i32 5
  %70 = load ptr, ptr %69, align 8, !tbaa !87
  %71 = load ptr, ptr %3, align 8, !tbaa !86
  %72 = call i32 @st__insert(ptr noundef %67, ptr noundef %70, ptr noundef %71)
  %73 = icmp ne i32 %72, 0
  br i1 %73, label %74, label %75

74:                                               ; preds = %66
  br label %75

75:                                               ; preds = %74, %66
  br label %76

76:                                               ; preds = %75, %17
  br label %77

77:                                               ; preds = %76, %65
  %78 = load i32, ptr %5, align 4, !tbaa !10
  %79 = add nsw i32 %78, 1
  store i32 %79, ptr %5, align 4, !tbaa !10
  br label %9, !llvm.loop !91

80:                                               ; preds = %9
  %81 = load ptr, ptr %4, align 8, !tbaa !75
  call void @llvm.lifetime.end.p0(i64 4, ptr %7) #4
  call void @llvm.lifetime.end.p0(i64 4, ptr %6) #4
  call void @llvm.lifetime.end.p0(i64 4, ptr %5) #4
  call void @llvm.lifetime.end.p0(i64 8, ptr %4) #4
  call void @llvm.lifetime.end.p0(i64 8, ptr %3) #4
  ret ptr %81
}