; Function Attrs: nounwind uwtable
define ptr @Map_CreateTableGate2Super(ptr noundef readonly captures(none) %0) local_unnamed_addr #0 {
  %2 = tail call ptr @st__init_table(ptr noundef nonnull @strcmp, ptr noundef nonnull @st__strhash) #16
  %3 = getelementptr inbounds nuw i8, ptr %0, i64 176
  %4 = load ptr, ptr %3, align 8, !tbaa !70
  %5 = getelementptr inbounds nuw i8, ptr %4, i64 20
  %6 = load i32, ptr %5, align 4, !tbaa !71
  %7 = icmp sgt i32 %6, 0
  br i1 %7, label %.lr.ph27, label %._crit_edge28

.lr.ph27:                                         ; preds = %1, %32
  %indvars.iv30 = phi i64 [ %indvars.iv.next31, %32 ], [ 0, %1 ]
  %8 = phi ptr [ %33, %32 ], [ %4, %1 ]
  %9 = getelementptr inbounds nuw i8, ptr %8, i64 40
  %10 = load ptr, ptr %9, align 8, !tbaa !78
  %11 = getelementptr inbounds nuw ptr, ptr %10, i64 %indvars.iv30
  %12 = load ptr, ptr %11, align 8, !tbaa !79
  %13 = getelementptr inbounds nuw i8, ptr %12, i64 4
  %14 = load i32, ptr %13, align 4
  %15 = and i32 %14, 224
  %16 = icmp eq i32 %15, 32
  br i1 %16, label %17, label %32

17:                                               ; preds = %.lr.ph27
  %18 = getelementptr inbounds nuw i8, ptr %12, i64 64
  %19 = load ptr, ptr %18, align 8, !tbaa !80
  %20 = tail call i32 @Mio_GateReadPinNum(ptr noundef %19) #16
  %21 = getelementptr inbounds nuw i8, ptr %12, i64 16
  %22 = icmp sgt i32 %20, 0
  br i1 %22, label %.lr.ph.preheader, label %._crit_edge

.lr.ph.preheader:                                 ; preds = %17
  %wide.trip.count = zext nneg i32 %20 to i64
  br label %.lr.ph

.lr.ph:                                           ; preds = %.lr.ph.preheader, %29
  %indvars.iv = phi i64 [ 0, %.lr.ph.preheader ], [ %indvars.iv.next, %29 ]
  %23 = getelementptr inbounds nuw [6 x ptr], ptr %21, i64 0, i64 %indvars.iv
  %24 = load ptr, ptr %23, align 8, !tbaa !79
  %25 = load i32, ptr %24, align 8, !tbaa !82
  %26 = trunc nuw nsw i64 %indvars.iv to i32
  %27 = xor i32 %26, -1
  %28 = add nsw i32 %20, %27
  %.not = icmp eq i32 %25, %28
  br i1 %.not, label %29, label %._crit_edge

29:                                               ; preds = %.lr.ph
  %indvars.iv.next = add nuw nsw i64 %indvars.iv, 1
  %exitcond.not = icmp eq i64 %indvars.iv.next, %wide.trip.count
  br i1 %exitcond.not, label %._crit_edge.thread, label %.lr.ph, !llvm.loop !83

._crit_edge:                                      ; preds = %.lr.ph, %17
  %.0.lcssa = phi i32 [ 0, %17 ], [ %26, %.lr.ph ]
  %.not21 = icmp eq i32 %.0.lcssa, %20
  br i1 %.not21, label %._crit_edge.thread, label %32

._crit_edge.thread:                               ; preds = %29, %._crit_edge
  %30 = load ptr, ptr %18, align 8, !tbaa !80
  %31 = tail call i32 @st__insert(ptr noundef %2, ptr noundef %30, ptr noundef nonnull %12) #16
  br label %32

32:                                               ; preds = %.lr.ph27, %._crit_edge.thread, %._crit_edge
  %indvars.iv.next31 = add nuw nsw i64 %indvars.iv30, 1
  %33 = load ptr, ptr %3, align 8, !tbaa !70
  %34 = getelementptr inbounds nuw i8, ptr %33, i64 20
  %35 = load i32, ptr %34, align 4, !tbaa !71
  %36 = sext i32 %35 to i64
  %37 = icmp slt i64 %indvars.iv.next31, %36
  br i1 %37, label %.lr.ph27, label %._crit_edge28, !llvm.loop !84

._crit_edge28:                                    ; preds = %32, %1
  ret ptr %2
}